opt subtitle "Microchip Technology Omniscient Code Generator v1.45 (Free mode) build 201711160504"

opt pagewidth 120

	opt lm

	processor	16F887
opt include "C:\Program Files (x86)\Microchip\xc8\v1.45\include\16f887.cgen.inc"
clrc	macro
	bcf	3,0
	endm
clrz	macro
	bcf	3,2
	endm
setc	macro
	bsf	3,0
	endm
setz	macro
	bsf	3,2
	endm
skipc	macro
	btfss	3,0
	endm
skipz	macro
	btfss	3,2
	endm
skipnc	macro
	btfsc	3,0
	endm
skipnz	macro
	btfsc	3,2
	endm
# 52 "C:\Program Files (x86)\Microchip\xc8\v1.45\include\pic16f887.h"
INDF equ 00h ;# 
# 59 "C:\Program Files (x86)\Microchip\xc8\v1.45\include\pic16f887.h"
TMR0 equ 01h ;# 
# 66 "C:\Program Files (x86)\Microchip\xc8\v1.45\include\pic16f887.h"
PCL equ 02h ;# 
# 73 "C:\Program Files (x86)\Microchip\xc8\v1.45\include\pic16f887.h"
STATUS equ 03h ;# 
# 159 "C:\Program Files (x86)\Microchip\xc8\v1.45\include\pic16f887.h"
FSR equ 04h ;# 
# 166 "C:\Program Files (x86)\Microchip\xc8\v1.45\include\pic16f887.h"
PORTA equ 05h ;# 
# 228 "C:\Program Files (x86)\Microchip\xc8\v1.45\include\pic16f887.h"
PORTB equ 06h ;# 
# 290 "C:\Program Files (x86)\Microchip\xc8\v1.45\include\pic16f887.h"
PORTC equ 07h ;# 
# 352 "C:\Program Files (x86)\Microchip\xc8\v1.45\include\pic16f887.h"
PORTD equ 08h ;# 
# 414 "C:\Program Files (x86)\Microchip\xc8\v1.45\include\pic16f887.h"
PORTE equ 09h ;# 
# 452 "C:\Program Files (x86)\Microchip\xc8\v1.45\include\pic16f887.h"
PCLATH equ 0Ah ;# 
# 459 "C:\Program Files (x86)\Microchip\xc8\v1.45\include\pic16f887.h"
INTCON equ 0Bh ;# 
# 537 "C:\Program Files (x86)\Microchip\xc8\v1.45\include\pic16f887.h"
PIR1 equ 0Ch ;# 
# 593 "C:\Program Files (x86)\Microchip\xc8\v1.45\include\pic16f887.h"
PIR2 equ 0Dh ;# 
# 650 "C:\Program Files (x86)\Microchip\xc8\v1.45\include\pic16f887.h"
TMR1 equ 0Eh ;# 
# 657 "C:\Program Files (x86)\Microchip\xc8\v1.45\include\pic16f887.h"
TMR1L equ 0Eh ;# 
# 664 "C:\Program Files (x86)\Microchip\xc8\v1.45\include\pic16f887.h"
TMR1H equ 0Fh ;# 
# 671 "C:\Program Files (x86)\Microchip\xc8\v1.45\include\pic16f887.h"
T1CON equ 010h ;# 
# 765 "C:\Program Files (x86)\Microchip\xc8\v1.45\include\pic16f887.h"
TMR2 equ 011h ;# 
# 772 "C:\Program Files (x86)\Microchip\xc8\v1.45\include\pic16f887.h"
T2CON equ 012h ;# 
# 843 "C:\Program Files (x86)\Microchip\xc8\v1.45\include\pic16f887.h"
SSPBUF equ 013h ;# 
# 850 "C:\Program Files (x86)\Microchip\xc8\v1.45\include\pic16f887.h"
SSPCON equ 014h ;# 
# 920 "C:\Program Files (x86)\Microchip\xc8\v1.45\include\pic16f887.h"
CCPR1 equ 015h ;# 
# 927 "C:\Program Files (x86)\Microchip\xc8\v1.45\include\pic16f887.h"
CCPR1L equ 015h ;# 
# 934 "C:\Program Files (x86)\Microchip\xc8\v1.45\include\pic16f887.h"
CCPR1H equ 016h ;# 
# 941 "C:\Program Files (x86)\Microchip\xc8\v1.45\include\pic16f887.h"
CCP1CON equ 017h ;# 
# 1038 "C:\Program Files (x86)\Microchip\xc8\v1.45\include\pic16f887.h"
RCSTA equ 018h ;# 
# 1133 "C:\Program Files (x86)\Microchip\xc8\v1.45\include\pic16f887.h"
TXREG equ 019h ;# 
# 1140 "C:\Program Files (x86)\Microchip\xc8\v1.45\include\pic16f887.h"
RCREG equ 01Ah ;# 
# 1147 "C:\Program Files (x86)\Microchip\xc8\v1.45\include\pic16f887.h"
CCPR2 equ 01Bh ;# 
# 1154 "C:\Program Files (x86)\Microchip\xc8\v1.45\include\pic16f887.h"
CCPR2L equ 01Bh ;# 
# 1161 "C:\Program Files (x86)\Microchip\xc8\v1.45\include\pic16f887.h"
CCPR2H equ 01Ch ;# 
# 1168 "C:\Program Files (x86)\Microchip\xc8\v1.45\include\pic16f887.h"
CCP2CON equ 01Dh ;# 
# 1238 "C:\Program Files (x86)\Microchip\xc8\v1.45\include\pic16f887.h"
ADRESH equ 01Eh ;# 
# 1245 "C:\Program Files (x86)\Microchip\xc8\v1.45\include\pic16f887.h"
ADCON0 equ 01Fh ;# 
# 1346 "C:\Program Files (x86)\Microchip\xc8\v1.45\include\pic16f887.h"
OPTION_REG equ 081h ;# 
# 1416 "C:\Program Files (x86)\Microchip\xc8\v1.45\include\pic16f887.h"
TRISA equ 085h ;# 
# 1478 "C:\Program Files (x86)\Microchip\xc8\v1.45\include\pic16f887.h"
TRISB equ 086h ;# 
# 1540 "C:\Program Files (x86)\Microchip\xc8\v1.45\include\pic16f887.h"
TRISC equ 087h ;# 
# 1602 "C:\Program Files (x86)\Microchip\xc8\v1.45\include\pic16f887.h"
TRISD equ 088h ;# 
# 1664 "C:\Program Files (x86)\Microchip\xc8\v1.45\include\pic16f887.h"
TRISE equ 089h ;# 
# 1702 "C:\Program Files (x86)\Microchip\xc8\v1.45\include\pic16f887.h"
PIE1 equ 08Ch ;# 
# 1758 "C:\Program Files (x86)\Microchip\xc8\v1.45\include\pic16f887.h"
PIE2 equ 08Dh ;# 
# 1815 "C:\Program Files (x86)\Microchip\xc8\v1.45\include\pic16f887.h"
PCON equ 08Eh ;# 
# 1862 "C:\Program Files (x86)\Microchip\xc8\v1.45\include\pic16f887.h"
OSCCON equ 08Fh ;# 
# 1927 "C:\Program Files (x86)\Microchip\xc8\v1.45\include\pic16f887.h"
OSCTUNE equ 090h ;# 
# 1979 "C:\Program Files (x86)\Microchip\xc8\v1.45\include\pic16f887.h"
SSPCON2 equ 091h ;# 
# 2041 "C:\Program Files (x86)\Microchip\xc8\v1.45\include\pic16f887.h"
PR2 equ 092h ;# 
# 2048 "C:\Program Files (x86)\Microchip\xc8\v1.45\include\pic16f887.h"
SSPADD equ 093h ;# 
# 2055 "C:\Program Files (x86)\Microchip\xc8\v1.45\include\pic16f887.h"
SSPMSK equ 093h ;# 
# 2060 "C:\Program Files (x86)\Microchip\xc8\v1.45\include\pic16f887.h"
MSK equ 093h ;# 
# 2177 "C:\Program Files (x86)\Microchip\xc8\v1.45\include\pic16f887.h"
SSPSTAT equ 094h ;# 
# 2346 "C:\Program Files (x86)\Microchip\xc8\v1.45\include\pic16f887.h"
WPUB equ 095h ;# 
# 2416 "C:\Program Files (x86)\Microchip\xc8\v1.45\include\pic16f887.h"
IOCB equ 096h ;# 
# 2486 "C:\Program Files (x86)\Microchip\xc8\v1.45\include\pic16f887.h"
VRCON equ 097h ;# 
# 2556 "C:\Program Files (x86)\Microchip\xc8\v1.45\include\pic16f887.h"
TXSTA equ 098h ;# 
# 2642 "C:\Program Files (x86)\Microchip\xc8\v1.45\include\pic16f887.h"
SPBRG equ 099h ;# 
# 2704 "C:\Program Files (x86)\Microchip\xc8\v1.45\include\pic16f887.h"
SPBRGH equ 09Ah ;# 
# 2774 "C:\Program Files (x86)\Microchip\xc8\v1.45\include\pic16f887.h"
PWM1CON equ 09Bh ;# 
# 2844 "C:\Program Files (x86)\Microchip\xc8\v1.45\include\pic16f887.h"
ECCPAS equ 09Ch ;# 
# 2926 "C:\Program Files (x86)\Microchip\xc8\v1.45\include\pic16f887.h"
PSTRCON equ 09Dh ;# 
# 2970 "C:\Program Files (x86)\Microchip\xc8\v1.45\include\pic16f887.h"
ADRESL equ 09Eh ;# 
# 2977 "C:\Program Files (x86)\Microchip\xc8\v1.45\include\pic16f887.h"
ADCON1 equ 09Fh ;# 
# 3011 "C:\Program Files (x86)\Microchip\xc8\v1.45\include\pic16f887.h"
WDTCON equ 0105h ;# 
# 3064 "C:\Program Files (x86)\Microchip\xc8\v1.45\include\pic16f887.h"
CM1CON0 equ 0107h ;# 
# 3129 "C:\Program Files (x86)\Microchip\xc8\v1.45\include\pic16f887.h"
CM2CON0 equ 0108h ;# 
# 3194 "C:\Program Files (x86)\Microchip\xc8\v1.45\include\pic16f887.h"
CM2CON1 equ 0109h ;# 
# 3245 "C:\Program Files (x86)\Microchip\xc8\v1.45\include\pic16f887.h"
EEDATA equ 010Ch ;# 
# 3250 "C:\Program Files (x86)\Microchip\xc8\v1.45\include\pic16f887.h"
EEDAT equ 010Ch ;# 
# 3257 "C:\Program Files (x86)\Microchip\xc8\v1.45\include\pic16f887.h"
EEADR equ 010Dh ;# 
# 3264 "C:\Program Files (x86)\Microchip\xc8\v1.45\include\pic16f887.h"
EEDATH equ 010Eh ;# 
# 3271 "C:\Program Files (x86)\Microchip\xc8\v1.45\include\pic16f887.h"
EEADRH equ 010Fh ;# 
# 3278 "C:\Program Files (x86)\Microchip\xc8\v1.45\include\pic16f887.h"
SRCON equ 0185h ;# 
# 3335 "C:\Program Files (x86)\Microchip\xc8\v1.45\include\pic16f887.h"
BAUDCTL equ 0187h ;# 
# 3387 "C:\Program Files (x86)\Microchip\xc8\v1.45\include\pic16f887.h"
ANSEL equ 0188h ;# 
# 3449 "C:\Program Files (x86)\Microchip\xc8\v1.45\include\pic16f887.h"
ANSELH equ 0189h ;# 
# 3499 "C:\Program Files (x86)\Microchip\xc8\v1.45\include\pic16f887.h"
EECON1 equ 018Ch ;# 
# 3544 "C:\Program Files (x86)\Microchip\xc8\v1.45\include\pic16f887.h"
EECON2 equ 018Dh ;# 
# 52 "C:\Program Files (x86)\Microchip\xc8\v1.45\include\pic16f887.h"
INDF equ 00h ;# 
# 59 "C:\Program Files (x86)\Microchip\xc8\v1.45\include\pic16f887.h"
TMR0 equ 01h ;# 
# 66 "C:\Program Files (x86)\Microchip\xc8\v1.45\include\pic16f887.h"
PCL equ 02h ;# 
# 73 "C:\Program Files (x86)\Microchip\xc8\v1.45\include\pic16f887.h"
STATUS equ 03h ;# 
# 159 "C:\Program Files (x86)\Microchip\xc8\v1.45\include\pic16f887.h"
FSR equ 04h ;# 
# 166 "C:\Program Files (x86)\Microchip\xc8\v1.45\include\pic16f887.h"
PORTA equ 05h ;# 
# 228 "C:\Program Files (x86)\Microchip\xc8\v1.45\include\pic16f887.h"
PORTB equ 06h ;# 
# 290 "C:\Program Files (x86)\Microchip\xc8\v1.45\include\pic16f887.h"
PORTC equ 07h ;# 
# 352 "C:\Program Files (x86)\Microchip\xc8\v1.45\include\pic16f887.h"
PORTD equ 08h ;# 
# 414 "C:\Program Files (x86)\Microchip\xc8\v1.45\include\pic16f887.h"
PORTE equ 09h ;# 
# 452 "C:\Program Files (x86)\Microchip\xc8\v1.45\include\pic16f887.h"
PCLATH equ 0Ah ;# 
# 459 "C:\Program Files (x86)\Microchip\xc8\v1.45\include\pic16f887.h"
INTCON equ 0Bh ;# 
# 537 "C:\Program Files (x86)\Microchip\xc8\v1.45\include\pic16f887.h"
PIR1 equ 0Ch ;# 
# 593 "C:\Program Files (x86)\Microchip\xc8\v1.45\include\pic16f887.h"
PIR2 equ 0Dh ;# 
# 650 "C:\Program Files (x86)\Microchip\xc8\v1.45\include\pic16f887.h"
TMR1 equ 0Eh ;# 
# 657 "C:\Program Files (x86)\Microchip\xc8\v1.45\include\pic16f887.h"
TMR1L equ 0Eh ;# 
# 664 "C:\Program Files (x86)\Microchip\xc8\v1.45\include\pic16f887.h"
TMR1H equ 0Fh ;# 
# 671 "C:\Program Files (x86)\Microchip\xc8\v1.45\include\pic16f887.h"
T1CON equ 010h ;# 
# 765 "C:\Program Files (x86)\Microchip\xc8\v1.45\include\pic16f887.h"
TMR2 equ 011h ;# 
# 772 "C:\Program Files (x86)\Microchip\xc8\v1.45\include\pic16f887.h"
T2CON equ 012h ;# 
# 843 "C:\Program Files (x86)\Microchip\xc8\v1.45\include\pic16f887.h"
SSPBUF equ 013h ;# 
# 850 "C:\Program Files (x86)\Microchip\xc8\v1.45\include\pic16f887.h"
SSPCON equ 014h ;# 
# 920 "C:\Program Files (x86)\Microchip\xc8\v1.45\include\pic16f887.h"
CCPR1 equ 015h ;# 
# 927 "C:\Program Files (x86)\Microchip\xc8\v1.45\include\pic16f887.h"
CCPR1L equ 015h ;# 
# 934 "C:\Program Files (x86)\Microchip\xc8\v1.45\include\pic16f887.h"
CCPR1H equ 016h ;# 
# 941 "C:\Program Files (x86)\Microchip\xc8\v1.45\include\pic16f887.h"
CCP1CON equ 017h ;# 
# 1038 "C:\Program Files (x86)\Microchip\xc8\v1.45\include\pic16f887.h"
RCSTA equ 018h ;# 
# 1133 "C:\Program Files (x86)\Microchip\xc8\v1.45\include\pic16f887.h"
TXREG equ 019h ;# 
# 1140 "C:\Program Files (x86)\Microchip\xc8\v1.45\include\pic16f887.h"
RCREG equ 01Ah ;# 
# 1147 "C:\Program Files (x86)\Microchip\xc8\v1.45\include\pic16f887.h"
CCPR2 equ 01Bh ;# 
# 1154 "C:\Program Files (x86)\Microchip\xc8\v1.45\include\pic16f887.h"
CCPR2L equ 01Bh ;# 
# 1161 "C:\Program Files (x86)\Microchip\xc8\v1.45\include\pic16f887.h"
CCPR2H equ 01Ch ;# 
# 1168 "C:\Program Files (x86)\Microchip\xc8\v1.45\include\pic16f887.h"
CCP2CON equ 01Dh ;# 
# 1238 "C:\Program Files (x86)\Microchip\xc8\v1.45\include\pic16f887.h"
ADRESH equ 01Eh ;# 
# 1245 "C:\Program Files (x86)\Microchip\xc8\v1.45\include\pic16f887.h"
ADCON0 equ 01Fh ;# 
# 1346 "C:\Program Files (x86)\Microchip\xc8\v1.45\include\pic16f887.h"
OPTION_REG equ 081h ;# 
# 1416 "C:\Program Files (x86)\Microchip\xc8\v1.45\include\pic16f887.h"
TRISA equ 085h ;# 
# 1478 "C:\Program Files (x86)\Microchip\xc8\v1.45\include\pic16f887.h"
TRISB equ 086h ;# 
# 1540 "C:\Program Files (x86)\Microchip\xc8\v1.45\include\pic16f887.h"
TRISC equ 087h ;# 
# 1602 "C:\Program Files (x86)\Microchip\xc8\v1.45\include\pic16f887.h"
TRISD equ 088h ;# 
# 1664 "C:\Program Files (x86)\Microchip\xc8\v1.45\include\pic16f887.h"
TRISE equ 089h ;# 
# 1702 "C:\Program Files (x86)\Microchip\xc8\v1.45\include\pic16f887.h"
PIE1 equ 08Ch ;# 
# 1758 "C:\Program Files (x86)\Microchip\xc8\v1.45\include\pic16f887.h"
PIE2 equ 08Dh ;# 
# 1815 "C:\Program Files (x86)\Microchip\xc8\v1.45\include\pic16f887.h"
PCON equ 08Eh ;# 
# 1862 "C:\Program Files (x86)\Microchip\xc8\v1.45\include\pic16f887.h"
OSCCON equ 08Fh ;# 
# 1927 "C:\Program Files (x86)\Microchip\xc8\v1.45\include\pic16f887.h"
OSCTUNE equ 090h ;# 
# 1979 "C:\Program Files (x86)\Microchip\xc8\v1.45\include\pic16f887.h"
SSPCON2 equ 091h ;# 
# 2041 "C:\Program Files (x86)\Microchip\xc8\v1.45\include\pic16f887.h"
PR2 equ 092h ;# 
# 2048 "C:\Program Files (x86)\Microchip\xc8\v1.45\include\pic16f887.h"
SSPADD equ 093h ;# 
# 2055 "C:\Program Files (x86)\Microchip\xc8\v1.45\include\pic16f887.h"
SSPMSK equ 093h ;# 
# 2060 "C:\Program Files (x86)\Microchip\xc8\v1.45\include\pic16f887.h"
MSK equ 093h ;# 
# 2177 "C:\Program Files (x86)\Microchip\xc8\v1.45\include\pic16f887.h"
SSPSTAT equ 094h ;# 
# 2346 "C:\Program Files (x86)\Microchip\xc8\v1.45\include\pic16f887.h"
WPUB equ 095h ;# 
# 2416 "C:\Program Files (x86)\Microchip\xc8\v1.45\include\pic16f887.h"
IOCB equ 096h ;# 
# 2486 "C:\Program Files (x86)\Microchip\xc8\v1.45\include\pic16f887.h"
VRCON equ 097h ;# 
# 2556 "C:\Program Files (x86)\Microchip\xc8\v1.45\include\pic16f887.h"
TXSTA equ 098h ;# 
# 2642 "C:\Program Files (x86)\Microchip\xc8\v1.45\include\pic16f887.h"
SPBRG equ 099h ;# 
# 2704 "C:\Program Files (x86)\Microchip\xc8\v1.45\include\pic16f887.h"
SPBRGH equ 09Ah ;# 
# 2774 "C:\Program Files (x86)\Microchip\xc8\v1.45\include\pic16f887.h"
PWM1CON equ 09Bh ;# 
# 2844 "C:\Program Files (x86)\Microchip\xc8\v1.45\include\pic16f887.h"
ECCPAS equ 09Ch ;# 
# 2926 "C:\Program Files (x86)\Microchip\xc8\v1.45\include\pic16f887.h"
PSTRCON equ 09Dh ;# 
# 2970 "C:\Program Files (x86)\Microchip\xc8\v1.45\include\pic16f887.h"
ADRESL equ 09Eh ;# 
# 2977 "C:\Program Files (x86)\Microchip\xc8\v1.45\include\pic16f887.h"
ADCON1 equ 09Fh ;# 
# 3011 "C:\Program Files (x86)\Microchip\xc8\v1.45\include\pic16f887.h"
WDTCON equ 0105h ;# 
# 3064 "C:\Program Files (x86)\Microchip\xc8\v1.45\include\pic16f887.h"
CM1CON0 equ 0107h ;# 
# 3129 "C:\Program Files (x86)\Microchip\xc8\v1.45\include\pic16f887.h"
CM2CON0 equ 0108h ;# 
# 3194 "C:\Program Files (x86)\Microchip\xc8\v1.45\include\pic16f887.h"
CM2CON1 equ 0109h ;# 
# 3245 "C:\Program Files (x86)\Microchip\xc8\v1.45\include\pic16f887.h"
EEDATA equ 010Ch ;# 
# 3250 "C:\Program Files (x86)\Microchip\xc8\v1.45\include\pic16f887.h"
EEDAT equ 010Ch ;# 
# 3257 "C:\Program Files (x86)\Microchip\xc8\v1.45\include\pic16f887.h"
EEADR equ 010Dh ;# 
# 3264 "C:\Program Files (x86)\Microchip\xc8\v1.45\include\pic16f887.h"
EEDATH equ 010Eh ;# 
# 3271 "C:\Program Files (x86)\Microchip\xc8\v1.45\include\pic16f887.h"
EEADRH equ 010Fh ;# 
# 3278 "C:\Program Files (x86)\Microchip\xc8\v1.45\include\pic16f887.h"
SRCON equ 0185h ;# 
# 3335 "C:\Program Files (x86)\Microchip\xc8\v1.45\include\pic16f887.h"
BAUDCTL equ 0187h ;# 
# 3387 "C:\Program Files (x86)\Microchip\xc8\v1.45\include\pic16f887.h"
ANSEL equ 0188h ;# 
# 3449 "C:\Program Files (x86)\Microchip\xc8\v1.45\include\pic16f887.h"
ANSELH equ 0189h ;# 
# 3499 "C:\Program Files (x86)\Microchip\xc8\v1.45\include\pic16f887.h"
EECON1 equ 018Ch ;# 
# 3544 "C:\Program Files (x86)\Microchip\xc8\v1.45\include\pic16f887.h"
EECON2 equ 018Dh ;# 
	FNCALL	_main,_calculaErro
	FNCALL	_main,_setPosicaoDesejada
	FNCALL	_main,_setup
	FNCALL	_setup,_setPosicaoAtual
	FNCALL	_setup,_setupStepper
	FNCALL	_setPosicaoAtual,___ftdiv
	FNCALL	_setPosicaoAtual,___fttol
	FNCALL	_setPosicaoAtual,___lwtoft
	FNCALL	_setPosicaoDesejada,___ftdiv
	FNCALL	_setPosicaoDesejada,___fttol
	FNCALL	_setPosicaoDesejada,___lwtoft
	FNCALL	___lwtoft,___ftpack
	FNCALL	___ftdiv,___ftpack
	FNCALL	_calculaErro,_abs
	FNROOT	_main
	FNCALL	intlevel1,_ISR
	global	intlevel1
	FNROOT	intlevel1
	global	_poscaler2
	global	_phase
	global	_error
	global	_setpoint
	global	_position
psect	nvBANK0,class=BANK0,space=1,noexec
global __pnvBANK0
__pnvBANK0:
_position:
       ds      1

	global	_PORTDbits
_PORTDbits	set	0x8
	global	_PORTD
_PORTD	set	0x8
	global	_STATUSbits
_STATUSbits	set	0x3
	global	_T2CON
_T2CON	set	0x12
	global	_PIR1bits
_PIR1bits	set	0xC
	global	_INTCONbits
_INTCONbits	set	0xB
	global	_PR2
_PR2	set	0x92
	global	_PIE1bits
_PIE1bits	set	0x8C
	global	_TRISD
_TRISD	set	0x88
; #config settings
global __CFG_FOSC$INTRC_NOCLKOUT
__CFG_FOSC$INTRC_NOCLKOUT equ 0x0
global __CFG_WDTE$OFF
__CFG_WDTE$OFF equ 0x0
global __CFG_PWRTE$OFF
__CFG_PWRTE$OFF equ 0x0
global __CFG_MCLRE$ON
__CFG_MCLRE$ON equ 0x0
global __CFG_CP$OFF
__CFG_CP$OFF equ 0x0
global __CFG_CPD$OFF
__CFG_CPD$OFF equ 0x0
global __CFG_BOREN$ON
__CFG_BOREN$ON equ 0x0
global __CFG_IESO$ON
__CFG_IESO$ON equ 0x0
global __CFG_FCMEN$ON
__CFG_FCMEN$ON equ 0x0
global __CFG_LVP$OFF
__CFG_LVP$OFF equ 0x0
global __CFG_DEBUG$OFF
__CFG_DEBUG$OFF equ 0x0
global __CFG_BOR4V$BOR40V
__CFG_BOR4V$BOR40V equ 0x0
global __CFG_WRT$OFF
__CFG_WRT$OFF equ 0x0
	file	"stepper_motor.as"
	line	#
psect cinit,class=CODE,delta=2
global start_initialization
start_initialization:

global __initialization
__initialization:
psect	bssBANK0,class=BANK0,space=1,noexec
global __pbssBANK0
__pbssBANK0:
_poscaler2:
       ds      1

_phase:
       ds      1

_error:
       ds      1

_setpoint:
       ds      1

	file	"stepper_motor.as"
	line	#
; Clear objects allocated to BANK0
psect cinit,class=CODE,delta=2,merge=1
	bcf	status, 5	;RP0=0, select bank0
	bcf	status, 6	;RP1=0, select bank0
	clrf	((__pbssBANK0)+0)&07Fh
	clrf	((__pbssBANK0)+1)&07Fh
	clrf	((__pbssBANK0)+2)&07Fh
	clrf	((__pbssBANK0)+3)&07Fh
psect cinit,class=CODE,delta=2,merge=1
global end_of_initialization,__end_of__initialization

;End of C runtime variable initialization code

end_of_initialization:
__end_of__initialization:
clrf status
ljmp _main	;jump to C main() function
psect	cstackCOMMON,class=COMMON,space=1,noexec
global __pcstackCOMMON
__pcstackCOMMON:
?_setupStepper:	; 1 bytes @ 0x0
?_calculaErro:	; 1 bytes @ 0x0
?_ISR:	; 1 bytes @ 0x0
??_ISR:	; 1 bytes @ 0x0
?_setup:	; 1 bytes @ 0x0
?_main:	; 1 bytes @ 0x0
	ds	7
??_setupStepper:	; 1 bytes @ 0x7
??_setup:	; 1 bytes @ 0x7
??_main:	; 1 bytes @ 0x7
psect	cstackBANK0,class=BANK0,space=1,noexec
global __pcstackBANK0
__pcstackBANK0:
	global	_ISR$221
_ISR$221:	; 2 bytes @ 0x0
	ds	2
	global	_ISR$222
_ISR$222:	; 2 bytes @ 0x2
	ds	2
	global	_ISR$223
_ISR$223:	; 2 bytes @ 0x4
	ds	2
	global	_ISR$224
_ISR$224:	; 2 bytes @ 0x6
	ds	2
	global	_ISR$225
_ISR$225:	; 2 bytes @ 0x8
	ds	2
	global	_ISR$226
_ISR$226:	; 2 bytes @ 0xA
	ds	2
	global	?_abs
?_abs:	; 2 bytes @ 0xC
	global	?___ftpack
?___ftpack:	; 3 bytes @ 0xC
	global	abs@a
abs@a:	; 2 bytes @ 0xC
	global	___ftpack@arg
___ftpack@arg:	; 3 bytes @ 0xC
	ds	2
??_abs:	; 1 bytes @ 0xE
	ds	1
	global	___ftpack@exp
___ftpack@exp:	; 1 bytes @ 0xF
	ds	1
??_calculaErro:	; 1 bytes @ 0x10
	global	___ftpack@sign
___ftpack@sign:	; 1 bytes @ 0x10
	ds	1
??___ftpack:	; 1 bytes @ 0x11
	ds	3
	global	?___lwtoft
?___lwtoft:	; 3 bytes @ 0x14
	global	___lwtoft@c
___lwtoft@c:	; 2 bytes @ 0x14
	ds	3
??___lwtoft:	; 1 bytes @ 0x17
	ds	1
	global	?___ftdiv
?___ftdiv:	; 3 bytes @ 0x18
	global	___ftdiv@f2
___ftdiv@f2:	; 3 bytes @ 0x18
	ds	3
	global	___ftdiv@f1
___ftdiv@f1:	; 3 bytes @ 0x1B
	ds	3
??___ftdiv:	; 1 bytes @ 0x1E
	ds	4
	global	___ftdiv@cntr
___ftdiv@cntr:	; 1 bytes @ 0x22
	ds	1
	global	___ftdiv@f3
___ftdiv@f3:	; 3 bytes @ 0x23
	ds	3
	global	___ftdiv@exp
___ftdiv@exp:	; 1 bytes @ 0x26
	ds	1
	global	___ftdiv@sign
___ftdiv@sign:	; 1 bytes @ 0x27
	ds	1
	global	?___fttol
?___fttol:	; 4 bytes @ 0x28
	global	___fttol@f1
___fttol@f1:	; 3 bytes @ 0x28
	ds	4
??___fttol:	; 1 bytes @ 0x2C
	ds	4
	global	___fttol@sign1
___fttol@sign1:	; 1 bytes @ 0x30
	ds	1
	global	___fttol@lval
___fttol@lval:	; 4 bytes @ 0x31
	ds	4
	global	___fttol@exp1
___fttol@exp1:	; 1 bytes @ 0x35
	ds	1
?_setPosicaoAtual:	; 1 bytes @ 0x36
?_setPosicaoDesejada:	; 1 bytes @ 0x36
	global	setPosicaoAtual@posicao_atual
setPosicaoAtual@posicao_atual:	; 2 bytes @ 0x36
	global	setPosicaoDesejada@posicao_desejada
setPosicaoDesejada@posicao_desejada:	; 2 bytes @ 0x36
	ds	2
??_setPosicaoAtual:	; 1 bytes @ 0x38
??_setPosicaoDesejada:	; 1 bytes @ 0x38
	ds	1
;!
;!Data Sizes:
;!    Strings     0
;!    Constant    0
;!    Data        0
;!    BSS         4
;!    Persistent  1
;!    Stack       0
;!
;!Auto Spaces:
;!    Space          Size  Autos    Used
;!    COMMON           14      7       7
;!    BANK0            80     57      62
;!    BANK1            80      0       0
;!    BANK3            96      0       0
;!    BANK2            96      0       0

;!
;!Pointer List with Targets:
;!
;!    None.


;!
;!Critical Paths under _main in COMMON
;!
;!    None.
;!
;!Critical Paths under _ISR in COMMON
;!
;!    None.
;!
;!Critical Paths under _main in BANK0
;!
;!    _main->_setPosicaoDesejada
;!    _setup->_setPosicaoAtual
;!    _setPosicaoAtual->___fttol
;!    _setPosicaoDesejada->___fttol
;!    ___lwtoft->___ftpack
;!    ___fttol->___ftdiv
;!    ___ftdiv->___lwtoft
;!    _calculaErro->_abs
;!
;!Critical Paths under _ISR in BANK0
;!
;!    None.
;!
;!Critical Paths under _main in BANK1
;!
;!    None.
;!
;!Critical Paths under _ISR in BANK1
;!
;!    None.
;!
;!Critical Paths under _main in BANK3
;!
;!    None.
;!
;!Critical Paths under _ISR in BANK3
;!
;!    None.
;!
;!Critical Paths under _main in BANK2
;!
;!    None.
;!
;!Critical Paths under _ISR in BANK2
;!
;!    None.

;;
;;Main: autosize = 0, tempsize = 0, incstack = 0, save=0
;;

;!
;!Call Graph Tables:
;!
;! ---------------------------------------------------------------------------------
;! (Depth) Function   	        Calls       Base Space   Used Autos Params    Refs
;! ---------------------------------------------------------------------------------
;! (0) _main                                                 0     0      0    8977
;!                        _calculaErro
;!                 _setPosicaoDesejada
;!                              _setup
;! ---------------------------------------------------------------------------------
;! (1) _setup                                                0     0      0    4376
;!                    _setPosicaoAtual
;!                       _setupStepper
;! ---------------------------------------------------------------------------------
;! (2) _setupStepper                                         0     0      0       0
;! ---------------------------------------------------------------------------------
;! (2) _setPosicaoAtual                                      3     1      2    4376
;!                                             54 BANK0      3     1      2
;!                            ___ftdiv
;!                            ___fttol
;!                           ___lwtoft
;! ---------------------------------------------------------------------------------
;! (1) _setPosicaoDesejada                                   3     1      2    4482
;!                                             54 BANK0      3     1      2
;!                            ___ftdiv
;!                            ___fttol
;!                           ___lwtoft
;! ---------------------------------------------------------------------------------
;! (3) ___lwtoft                                             4     1      3    1763
;!                                             20 BANK0      4     1      3
;!                           ___ftpack
;! ---------------------------------------------------------------------------------
;! (3) ___fttol                                             14    10      4     411
;!                                             40 BANK0     14    10      4
;!                            ___ftdiv (ARG)
;!                           ___lwtoft (ARG)
;! ---------------------------------------------------------------------------------
;! (3) ___ftdiv                                             16    10      6    2127
;!                                             24 BANK0     16    10      6
;!                           ___ftpack
;!                           ___lwtoft (ARG)
;! ---------------------------------------------------------------------------------
;! (4) ___ftpack                                             8     3      5    1635
;!                                             12 BANK0      8     3      5
;! ---------------------------------------------------------------------------------
;! (1) _calculaErro                                          3     3      0     119
;!                                             16 BANK0      3     3      0
;!                                _abs
;! ---------------------------------------------------------------------------------
;! (2) _abs                                                  4     2      2     119
;!                                             12 BANK0      4     2      2
;! ---------------------------------------------------------------------------------
;! Estimated maximum stack depth 4
;! ---------------------------------------------------------------------------------
;! (Depth) Function   	        Calls       Base Space   Used Autos Params    Refs
;! ---------------------------------------------------------------------------------
;! (5) _ISR                                                 19    19      0     144
;!                                              0 COMMON     7     7      0
;!                                              0 BANK0     12    12      0
;! ---------------------------------------------------------------------------------
;! Estimated maximum stack depth 5
;! ---------------------------------------------------------------------------------
;!
;! Call Graph Graphs:
;!
;! _main (ROOT)
;!   _calculaErro
;!     _abs
;!   _setPosicaoDesejada
;!     ___ftdiv
;!       ___ftpack
;!       ___lwtoft (ARG)
;!         ___ftpack
;!     ___fttol
;!       ___ftdiv (ARG)
;!         ___ftpack
;!         ___lwtoft (ARG)
;!           ___ftpack
;!       ___lwtoft (ARG)
;!         ___ftpack
;!     ___lwtoft
;!       ___ftpack
;!   _setup
;!     _setPosicaoAtual
;!       ___ftdiv
;!         ___ftpack
;!         ___lwtoft (ARG)
;!           ___ftpack
;!       ___fttol
;!         ___ftdiv (ARG)
;!           ___ftpack
;!           ___lwtoft (ARG)
;!             ___ftpack
;!         ___lwtoft (ARG)
;!           ___ftpack
;!       ___lwtoft
;!         ___ftpack
;!     _setupStepper
;!
;! _ISR (ROOT)
;!

;! Address spaces:

;!Name               Size   Autos  Total    Cost      Usage
;!BITCOMMON            E      0       0       0        0.0%
;!EEDATA             100      0       0       0        0.0%
;!NULL                 0      0       0       0        0.0%
;!CODE                 0      0       0       0        0.0%
;!COMMON               E      7       7       1       50.0%
;!BITSFR0              0      0       0       1        0.0%
;!SFR0                 0      0       0       1        0.0%
;!BITSFR1              0      0       0       2        0.0%
;!SFR1                 0      0       0       2        0.0%
;!STACK                0      0       0       2        0.0%
;!ABS                  0      0      45       3        0.0%
;!BITBANK0            50      0       0       4        0.0%
;!BITSFR3              0      0       0       4        0.0%
;!SFR3                 0      0       0       4        0.0%
;!BANK0               50     39      3E       5       77.5%
;!BITSFR2              0      0       0       5        0.0%
;!SFR2                 0      0       0       5        0.0%
;!BITBANK1            50      0       0       6        0.0%
;!BANK1               50      0       0       7        0.0%
;!BITBANK3            60      0       0       8        0.0%
;!BANK3               60      0       0       9        0.0%
;!BITBANK2            60      0       0      10        0.0%
;!BANK2               60      0       0      11        0.0%
;!DATA                 0      0      45      12        0.0%

	global	_main

;; *************** function _main *****************
;; Defined at:
;;		line 50 in file "D:\Drive\00_UNIFEI\2022.1\Lab. de Microcontroladores\Projeto\stepper_motor-pic16f887\stepper_motor\main.c"
;; Parameters:    Size  Location     Type
;;		None
;; Auto vars:     Size  Location     Type
;;		None
;; Return value:  Size  Location     Type
;;                  1    wreg      void 
;; Registers used:
;;		wreg, status,2, status,0, pclath, cstack
;; Tracked objects:
;;		On entry : B00/0
;;		On exit  : 0/0
;;		Unchanged: 0/0
;; Data sizes:     COMMON   BANK0   BANK1   BANK3   BANK2
;;      Params:         0       0       0       0       0
;;      Locals:         0       0       0       0       0
;;      Temps:          0       0       0       0       0
;;      Totals:         0       0       0       0       0
;;Total ram usage:        0 bytes
;; Hardware stack levels required when called:    5
;; This function calls:
;;		_calculaErro
;;		_setPosicaoDesejada
;;		_setup
;; This function is called by:
;;		Startup code after reset
;; This function uses a non-reentrant model
;;
psect	maintext,global,class=CODE,delta=2,split=1,group=0
	file	"D:\Drive\00_UNIFEI\2022.1\Lab. de Microcontroladores\Projeto\stepper_motor-pic16f887\stepper_motor\main.c"
	line	50
global __pmaintext
__pmaintext:	;psect for function _main
psect	maintext
	file	"D:\Drive\00_UNIFEI\2022.1\Lab. de Microcontroladores\Projeto\stepper_motor-pic16f887\stepper_motor\main.c"
	line	50
	global	__size_of_main
	__size_of_main	equ	__end_of_main-_main
	
_main:	
;incstack = 0
	opt	stack 3
; Regs used in _main: [wreg+status,2+status,0+pclath+cstack]
	line	52
	
l1027:	
;main.c: 52: setup();
	fcall	_setup
	goto	l1029
	line	54
;main.c: 54: while(1){
	
l103:	
	line	56
	
l1029:	
;main.c: 56: if(PORTDbits.RD4==1)
	bcf	status, 5	;RP0=0, select bank0
	bcf	status, 6	;RP1=0, select bank0
	btfss	(8),4	;volatile
	goto	u941
	goto	u940
u941:
	goto	l1033
u940:
	line	57
	
l1031:	
;main.c: 57: setPosicaoDesejada(0);
	movlw	0
	movwf	(setPosicaoDesejada@posicao_desejada)
	movwf	(setPosicaoDesejada@posicao_desejada+1)
	fcall	_setPosicaoDesejada
	goto	l1033
	
l104:	
	line	58
	
l1033:	
;main.c: 58: if(PORTDbits.RD5==1)
	bcf	status, 5	;RP0=0, select bank0
	bcf	status, 6	;RP1=0, select bank0
	btfss	(8),5	;volatile
	goto	u951
	goto	u950
u951:
	goto	l1037
u950:
	line	59
	
l1035:	
;main.c: 59: setPosicaoDesejada(120);
	movlw	078h
	movwf	(setPosicaoDesejada@posicao_desejada)
	movlw	0
	movwf	((setPosicaoDesejada@posicao_desejada))+1
	fcall	_setPosicaoDesejada
	goto	l1037
	
l105:	
	line	60
	
l1037:	
;main.c: 60: if(PORTDbits.RD6==1)
	bcf	status, 5	;RP0=0, select bank0
	bcf	status, 6	;RP1=0, select bank0
	btfss	(8),6	;volatile
	goto	u961
	goto	u960
u961:
	goto	l106
u960:
	line	61
	
l1039:	
;main.c: 61: setPosicaoDesejada(240);
	movlw	0F0h
	movwf	(setPosicaoDesejada@posicao_desejada)
	movlw	0
	movwf	((setPosicaoDesejada@posicao_desejada))+1
	fcall	_setPosicaoDesejada
	
l106:	
	line	63
;main.c: 63: calculaErro();
	fcall	_calculaErro
	goto	l1029
	line	65
	
l107:	
	line	54
	goto	l1029
	
l108:	
	line	66
	
l109:	
	global	start
	ljmp	start
	opt stack 0
GLOBAL	__end_of_main
	__end_of_main:
	signat	_main,89
	global	_setup

;; *************** function _setup *****************
;; Defined at:
;;		line 43 in file "D:\Drive\00_UNIFEI\2022.1\Lab. de Microcontroladores\Projeto\stepper_motor-pic16f887\stepper_motor\main.c"
;; Parameters:    Size  Location     Type
;;		None
;; Auto vars:     Size  Location     Type
;;		None
;; Return value:  Size  Location     Type
;;                  1    wreg      void 
;; Registers used:
;;		wreg, status,2, status,0, pclath, cstack
;; Tracked objects:
;;		On entry : 0/0
;;		On exit  : 0/0
;;		Unchanged: 0/0
;; Data sizes:     COMMON   BANK0   BANK1   BANK3   BANK2
;;      Params:         0       0       0       0       0
;;      Locals:         0       0       0       0       0
;;      Temps:          0       0       0       0       0
;;      Totals:         0       0       0       0       0
;;Total ram usage:        0 bytes
;; Hardware stack levels used:    1
;; Hardware stack levels required when called:    4
;; This function calls:
;;		_setPosicaoAtual
;;		_setupStepper
;; This function is called by:
;;		_main
;; This function uses a non-reentrant model
;;
psect	text1,local,class=CODE,delta=2,merge=1,group=0
	line	43
global __ptext1
__ptext1:	;psect for function _setup
psect	text1
	file	"D:\Drive\00_UNIFEI\2022.1\Lab. de Microcontroladores\Projeto\stepper_motor-pic16f887\stepper_motor\main.c"
	line	43
	global	__size_of_setup
	__size_of_setup	equ	__end_of_setup-_setup
	
_setup:	
;incstack = 0
	opt	stack 3
; Regs used in _setup: [wreg+status,2+status,0+pclath+cstack]
	line	45
	
l961:	
;main.c: 45: setupStepper();
	fcall	_setupStepper
	line	46
;main.c: 46: setPosicaoAtual(0);
	movlw	0
	bcf	status, 5	;RP0=0, select bank0
	bcf	status, 6	;RP1=0, select bank0
	movwf	(setPosicaoAtual@posicao_atual)
	movwf	(setPosicaoAtual@posicao_atual+1)
	fcall	_setPosicaoAtual
	line	48
	
l98:	
	return
	opt stack 0
GLOBAL	__end_of_setup
	__end_of_setup:
	signat	_setup,89
	global	_setupStepper

;; *************** function _setupStepper *****************
;; Defined at:
;;		line 6 in file "D:\Drive\00_UNIFEI\2022.1\Lab. de Microcontroladores\Projeto\stepper_motor-pic16f887\stepper_motor\stepper.c"
;; Parameters:    Size  Location     Type
;;		None
;; Auto vars:     Size  Location     Type
;;		None
;; Return value:  Size  Location     Type
;;                  1    wreg      void 
;; Registers used:
;;		wreg
;; Tracked objects:
;;		On entry : 0/0
;;		On exit  : 0/0
;;		Unchanged: 0/0
;; Data sizes:     COMMON   BANK0   BANK1   BANK3   BANK2
;;      Params:         0       0       0       0       0
;;      Locals:         0       0       0       0       0
;;      Temps:          0       0       0       0       0
;;      Totals:         0       0       0       0       0
;;Total ram usage:        0 bytes
;; Hardware stack levels used:    1
;; Hardware stack levels required when called:    1
;; This function calls:
;;		Nothing
;; This function is called by:
;;		_setup
;; This function uses a non-reentrant model
;;
psect	text2,local,class=CODE,delta=2,merge=1,group=0
	file	"D:\Drive\00_UNIFEI\2022.1\Lab. de Microcontroladores\Projeto\stepper_motor-pic16f887\stepper_motor\stepper.c"
	line	6
global __ptext2
__ptext2:	;psect for function _setupStepper
psect	text2
	file	"D:\Drive\00_UNIFEI\2022.1\Lab. de Microcontroladores\Projeto\stepper_motor-pic16f887\stepper_motor\stepper.c"
	line	6
	global	__size_of_setupStepper
	__size_of_setupStepper	equ	__end_of_setupStepper-_setupStepper
	
_setupStepper:	
;incstack = 0
	opt	stack 5
; Regs used in _setupStepper: [wreg]
	line	8
	
l927:	
;stepper.c: 8: TRISD = 0b11110000;
	movlw	low(0F0h)
	bsf	status, 5	;RP0=1, select bank1
	bcf	status, 6	;RP1=0, select bank1
	movwf	(136)^080h	;volatile
	line	10
	
l929:	
;stepper.c: 10: INTCONbits.GIE = 1;
	bsf	(11),7	;volatile
	line	11
	
l931:	
;stepper.c: 11: INTCONbits.PEIE = 1;
	bsf	(11),6	;volatile
	line	13
	
l933:	
;stepper.c: 13: PIE1bits.TMR2IE = 1;
	bsf	(140)^080h,1	;volatile
	line	14
	
l935:	
;stepper.c: 14: PIR1bits.TMR2IF = 0;
	bcf	status, 5	;RP0=0, select bank0
	bcf	status, 6	;RP1=0, select bank0
	bcf	(12),1	;volatile
	line	15
;stepper.c: 15: T2CON = 0b01111110;
	movlw	low(07Eh)
	movwf	(18)	;volatile
	line	16
;stepper.c: 16: PR2=255;
	movlw	low(0FFh)
	bsf	status, 5	;RP0=1, select bank1
	bcf	status, 6	;RP1=0, select bank1
	movwf	(146)^080h	;volatile
	line	17
	
l23:	
	return
	opt stack 0
GLOBAL	__end_of_setupStepper
	__end_of_setupStepper:
	signat	_setupStepper,89
	global	_setPosicaoAtual

;; *************** function _setPosicaoAtual *****************
;; Defined at:
;;		line 19 in file "D:\Drive\00_UNIFEI\2022.1\Lab. de Microcontroladores\Projeto\stepper_motor-pic16f887\stepper_motor\stepper.c"
;; Parameters:    Size  Location     Type
;;  posicao_atua    2   54[BANK0 ] unsigned int 
;; Auto vars:     Size  Location     Type
;;		None
;; Return value:  Size  Location     Type
;;                  1    wreg      void 
;; Registers used:
;;		wreg, status,2, status,0, pclath, cstack
;; Tracked objects:
;;		On entry : 0/0
;;		On exit  : 0/0
;;		Unchanged: 0/0
;; Data sizes:     COMMON   BANK0   BANK1   BANK3   BANK2
;;      Params:         0       2       0       0       0
;;      Locals:         0       0       0       0       0
;;      Temps:          0       1       0       0       0
;;      Totals:         0       3       0       0       0
;;Total ram usage:        3 bytes
;; Hardware stack levels used:    1
;; Hardware stack levels required when called:    3
;; This function calls:
;;		___ftdiv
;;		___fttol
;;		___lwtoft
;; This function is called by:
;;		_setup
;; This function uses a non-reentrant model
;;
psect	text3,local,class=CODE,delta=2,merge=1,group=0
	line	19
global __ptext3
__ptext3:	;psect for function _setPosicaoAtual
psect	text3
	file	"D:\Drive\00_UNIFEI\2022.1\Lab. de Microcontroladores\Projeto\stepper_motor-pic16f887\stepper_motor\stepper.c"
	line	19
	global	__size_of_setPosicaoAtual
	__size_of_setPosicaoAtual	equ	__end_of_setPosicaoAtual-_setPosicaoAtual
	
_setPosicaoAtual:	
;incstack = 0
	opt	stack 3
; Regs used in _setPosicaoAtual: [wreg+status,2+status,0+pclath+cstack]
	line	20
	
l937:	
;stepper.c: 20: position = posicao_atual/5.525;
	bcf	status, 5	;RP0=0, select bank0
	bcf	status, 6	;RP1=0, select bank0
	movf	(setPosicaoAtual@posicao_atual+1),w
	movwf	(___lwtoft@c+1)
	movf	(setPosicaoAtual@posicao_atual),w
	movwf	(___lwtoft@c)
	fcall	___lwtoft
	bcf	status, 5	;RP0=0, select bank0
	bcf	status, 6	;RP1=0, select bank0
	movf	(0+(?___lwtoft)),w
	movwf	(___ftdiv@f1)
	movf	(1+(?___lwtoft)),w
	movwf	(___ftdiv@f1+1)
	movf	(2+(?___lwtoft)),w
	movwf	(___ftdiv@f1+2)
	movlw	0xcd
	movwf	(___ftdiv@f2)
	movlw	0xb0
	movwf	(___ftdiv@f2+1)
	movlw	0x40
	movwf	(___ftdiv@f2+2)
	fcall	___ftdiv
	bcf	status, 5	;RP0=0, select bank0
	bcf	status, 6	;RP1=0, select bank0
	movf	(0+(?___ftdiv)),w
	movwf	(___fttol@f1)
	movf	(1+(?___ftdiv)),w
	movwf	(___fttol@f1+1)
	movf	(2+(?___ftdiv)),w
	movwf	(___fttol@f1+2)
	fcall	___fttol
	bcf	status, 5	;RP0=0, select bank0
	bcf	status, 6	;RP1=0, select bank0
	movf	(0+(?___fttol)),w
	movwf	(??_setPosicaoAtual+0)+0
	movf	(??_setPosicaoAtual+0)+0,w
	movwf	(_position)
	line	21
	
l26:	
	return
	opt stack 0
GLOBAL	__end_of_setPosicaoAtual
	__end_of_setPosicaoAtual:
	signat	_setPosicaoAtual,4217
	global	_setPosicaoDesejada

;; *************** function _setPosicaoDesejada *****************
;; Defined at:
;;		line 27 in file "D:\Drive\00_UNIFEI\2022.1\Lab. de Microcontroladores\Projeto\stepper_motor-pic16f887\stepper_motor\stepper.c"
;; Parameters:    Size  Location     Type
;;  posicao_dese    2   54[BANK0 ] unsigned int 
;; Auto vars:     Size  Location     Type
;;		None
;; Return value:  Size  Location     Type
;;                  1    wreg      void 
;; Registers used:
;;		wreg, status,2, status,0, pclath, cstack
;; Tracked objects:
;;		On entry : 0/0
;;		On exit  : 0/0
;;		Unchanged: 0/0
;; Data sizes:     COMMON   BANK0   BANK1   BANK3   BANK2
;;      Params:         0       2       0       0       0
;;      Locals:         0       0       0       0       0
;;      Temps:          0       1       0       0       0
;;      Totals:         0       3       0       0       0
;;Total ram usage:        3 bytes
;; Hardware stack levels used:    1
;; Hardware stack levels required when called:    3
;; This function calls:
;;		___ftdiv
;;		___fttol
;;		___lwtoft
;; This function is called by:
;;		_main
;; This function uses a non-reentrant model
;;
psect	text4,local,class=CODE,delta=2,merge=1,group=0
	line	27
global __ptext4
__ptext4:	;psect for function _setPosicaoDesejada
psect	text4
	file	"D:\Drive\00_UNIFEI\2022.1\Lab. de Microcontroladores\Projeto\stepper_motor-pic16f887\stepper_motor\stepper.c"
	line	27
	global	__size_of_setPosicaoDesejada
	__size_of_setPosicaoDesejada	equ	__end_of_setPosicaoDesejada-_setPosicaoDesejada
	
_setPosicaoDesejada:	
;incstack = 0
	opt	stack 4
; Regs used in _setPosicaoDesejada: [wreg+status,2+status,0+pclath+cstack]
	line	28
	
l945:	
;stepper.c: 28: setpoint = posicao_desejada/5.525;
	bcf	status, 5	;RP0=0, select bank0
	bcf	status, 6	;RP1=0, select bank0
	movf	(setPosicaoDesejada@posicao_desejada+1),w
	movwf	(___lwtoft@c+1)
	movf	(setPosicaoDesejada@posicao_desejada),w
	movwf	(___lwtoft@c)
	fcall	___lwtoft
	bcf	status, 5	;RP0=0, select bank0
	bcf	status, 6	;RP1=0, select bank0
	movf	(0+(?___lwtoft)),w
	movwf	(___ftdiv@f1)
	movf	(1+(?___lwtoft)),w
	movwf	(___ftdiv@f1+1)
	movf	(2+(?___lwtoft)),w
	movwf	(___ftdiv@f1+2)
	movlw	0xcd
	movwf	(___ftdiv@f2)
	movlw	0xb0
	movwf	(___ftdiv@f2+1)
	movlw	0x40
	movwf	(___ftdiv@f2+2)
	fcall	___ftdiv
	bcf	status, 5	;RP0=0, select bank0
	bcf	status, 6	;RP1=0, select bank0
	movf	(0+(?___ftdiv)),w
	movwf	(___fttol@f1)
	movf	(1+(?___ftdiv)),w
	movwf	(___fttol@f1+1)
	movf	(2+(?___ftdiv)),w
	movwf	(___fttol@f1+2)
	fcall	___fttol
	bcf	status, 5	;RP0=0, select bank0
	bcf	status, 6	;RP1=0, select bank0
	movf	(0+(?___fttol)),w
	movwf	(??_setPosicaoDesejada+0)+0
	movf	(??_setPosicaoDesejada+0)+0,w
	movwf	(_setpoint)
	line	29
	
l32:	
	return
	opt stack 0
GLOBAL	__end_of_setPosicaoDesejada
	__end_of_setPosicaoDesejada:
	signat	_setPosicaoDesejada,4217
	global	___lwtoft

;; *************** function ___lwtoft *****************
;; Defined at:
;;		line 28 in file "C:\Program Files (x86)\Microchip\xc8\v1.45\sources\common\lwtoft.c"
;; Parameters:    Size  Location     Type
;;  c               2   20[BANK0 ] unsigned int 
;; Auto vars:     Size  Location     Type
;;		None
;; Return value:  Size  Location     Type
;;                  3   20[BANK0 ] float 
;; Registers used:
;;		wreg, status,2, status,0, pclath, cstack
;; Tracked objects:
;;		On entry : 0/0
;;		On exit  : 0/0
;;		Unchanged: 0/0
;; Data sizes:     COMMON   BANK0   BANK1   BANK3   BANK2
;;      Params:         0       3       0       0       0
;;      Locals:         0       0       0       0       0
;;      Temps:          0       1       0       0       0
;;      Totals:         0       4       0       0       0
;;Total ram usage:        4 bytes
;; Hardware stack levels used:    1
;; Hardware stack levels required when called:    2
;; This function calls:
;;		___ftpack
;; This function is called by:
;;		_setPosicaoAtual
;;		_setPosicaoDesejada
;; This function uses a non-reentrant model
;;
psect	text5,local,class=CODE,delta=2,merge=1,group=2
	file	"C:\Program Files (x86)\Microchip\xc8\v1.45\sources\common\lwtoft.c"
	line	28
global __ptext5
__ptext5:	;psect for function ___lwtoft
psect	text5
	file	"C:\Program Files (x86)\Microchip\xc8\v1.45\sources\common\lwtoft.c"
	line	28
	global	__size_of___lwtoft
	__size_of___lwtoft	equ	__end_of___lwtoft-___lwtoft
	
___lwtoft:	
;incstack = 0
	opt	stack 3
; Regs used in ___lwtoft: [wreg+status,2+status,0+pclath+cstack]
	line	30
	
l923:	
	bcf	status, 5	;RP0=0, select bank0
	bcf	status, 6	;RP1=0, select bank0
	movf	(___lwtoft@c),w
	movwf	(___ftpack@arg)
	movf	(___lwtoft@c+1),w
	movwf	(___ftpack@arg+1)
	clrf	(___ftpack@arg+2)
	movlw	low(08Eh)
	movwf	(??___lwtoft+0)+0
	movf	(??___lwtoft+0)+0,w
	movwf	(___ftpack@exp)
	clrf	(___ftpack@sign)
	fcall	___ftpack
	bcf	status, 5	;RP0=0, select bank0
	bcf	status, 6	;RP1=0, select bank0
	movf	(0+(?___ftpack)),w
	movwf	(?___lwtoft)
	movf	(1+(?___ftpack)),w
	movwf	(?___lwtoft+1)
	movf	(2+(?___ftpack)),w
	movwf	(?___lwtoft+2)
	goto	l551
	
l925:	
	line	31
	
l551:	
	return
	opt stack 0
GLOBAL	__end_of___lwtoft
	__end_of___lwtoft:
	signat	___lwtoft,4219
	global	___fttol

;; *************** function ___fttol *****************
;; Defined at:
;;		line 44 in file "C:\Program Files (x86)\Microchip\xc8\v1.45\sources\common\fttol.c"
;; Parameters:    Size  Location     Type
;;  f1              3   40[BANK0 ] float 
;; Auto vars:     Size  Location     Type
;;  lval            4   49[BANK0 ] unsigned long 
;;  exp1            1   53[BANK0 ] unsigned char 
;;  sign1           1   48[BANK0 ] unsigned char 
;; Return value:  Size  Location     Type
;;                  4   40[BANK0 ] long 
;; Registers used:
;;		wreg, status,2, status,0
;; Tracked objects:
;;		On entry : 0/0
;;		On exit  : 0/0
;;		Unchanged: 0/0
;; Data sizes:     COMMON   BANK0   BANK1   BANK3   BANK2
;;      Params:         0       4       0       0       0
;;      Locals:         0       6       0       0       0
;;      Temps:          0       4       0       0       0
;;      Totals:         0      14       0       0       0
;;Total ram usage:       14 bytes
;; Hardware stack levels used:    1
;; Hardware stack levels required when called:    1
;; This function calls:
;;		Nothing
;; This function is called by:
;;		_setPosicaoAtual
;;		_setPosicaoDesejada
;;		_getPosicaoAtual
;; This function uses a non-reentrant model
;;
psect	text6,local,class=CODE,delta=2,merge=1,group=2
	file	"C:\Program Files (x86)\Microchip\xc8\v1.45\sources\common\fttol.c"
	line	44
global __ptext6
__ptext6:	;psect for function ___fttol
psect	text6
	file	"C:\Program Files (x86)\Microchip\xc8\v1.45\sources\common\fttol.c"
	line	44
	global	__size_of___fttol
	__size_of___fttol	equ	__end_of___fttol-___fttol
	
___fttol:	
;incstack = 0
	opt	stack 4
; Regs used in ___fttol: [wreg+status,2+status,0]
	line	49
	
l881:	
	bcf	status, 5	;RP0=0, select bank0
	bcf	status, 6	;RP1=0, select bank0
	movf	(___fttol@f1),w
	movwf	((??___fttol+0)+0)
	movf	(___fttol@f1+1),w
	movwf	((??___fttol+0)+0+1)
	movf	(___fttol@f1+2),w
	movwf	((??___fttol+0)+0+2)
	clrc
	rlf	(??___fttol+0)+1,w
	rlf	(??___fttol+0)+2,w
	movwf	(??___fttol+3)+0
	movf	(??___fttol+3)+0,w
	movwf	(___fttol@exp1)
	movf	(((___fttol@exp1))),w
	btfss	status,2
	goto	u691
	goto	u690
u691:
	goto	l887
u690:
	line	50
	
l883:	
	movlw	high highword(0)
	movwf	(?___fttol+3)
	movlw	low highword(0)
	movwf	(?___fttol+2)
	movlw	high(0)
	movwf	(?___fttol+1)
	movlw	low(0)
	movwf	(?___fttol)

	goto	l442
	
l885:	
	goto	l442
	
l441:	
	line	51
	
l887:	
	movf	(___fttol@f1),w
	movwf	((??___fttol+0)+0)
	movf	(___fttol@f1+1),w
	movwf	((??___fttol+0)+0+1)
	movf	(___fttol@f1+2),w
	movwf	((??___fttol+0)+0+2)
	movlw	017h
u705:
	clrc
	rrf	(??___fttol+0)+2,f
	rrf	(??___fttol+0)+1,f
	rrf	(??___fttol+0)+0,f
u700:
	addlw	-1
	skipz
	goto	u705
	movf	0+(??___fttol+0)+0,w
	movwf	(??___fttol+3)+0
	movf	(??___fttol+3)+0,w
	movwf	(___fttol@sign1)
	line	52
	
l889:	
	bsf	(___fttol@f1)+(15/8),(15)&7
	line	53
	
l891:	
	movlw	0FFh
	andwf	(___fttol@f1),f
	movlw	0FFh
	andwf	(___fttol@f1+1),f
	movlw	0
	andwf	(___fttol@f1+2),f
	line	54
	
l893:	
	movf	(___fttol@f1),w
	movwf	(___fttol@lval)
	movf	(___fttol@f1+1),w
	movwf	((___fttol@lval))+1
	movf	(___fttol@f1+2),w
	movwf	((___fttol@lval))+2
	clrf	((___fttol@lval))+3
	line	55
	
l895:	
	movlw	08Eh
	subwf	(___fttol@exp1),f
	line	56
	
l897:	
	btfss	(___fttol@exp1),7
	goto	u711
	goto	u710
u711:
	goto	l907
u710:
	line	57
	
l899:	
	movf	(___fttol@exp1),w
	xorlw	80h
	addlw	-((-15)^80h)
	skipnc
	goto	u721
	goto	u720
u721:
	goto	l905
u720:
	line	58
	
l901:	
	movlw	high highword(0)
	movwf	(?___fttol+3)
	movlw	low highword(0)
	movwf	(?___fttol+2)
	movlw	high(0)
	movwf	(?___fttol+1)
	movlw	low(0)
	movwf	(?___fttol)

	goto	l442
	
l903:	
	goto	l442
	
l444:	
	goto	l905
	line	59
	
l445:	
	line	60
	
l905:	
	movlw	01h
u735:
	clrc
	rrf	(___fttol@lval+3),f
	rrf	(___fttol@lval+2),f
	rrf	(___fttol@lval+1),f
	rrf	(___fttol@lval),f
	addlw	-1
	skipz
	goto	u735

	line	61
	movlw	low(01h)
	movwf	(??___fttol+0)+0
	movf	(??___fttol+0)+0,w
	addwf	(___fttol@exp1),f
	btfss	status,2
	goto	u741
	goto	u740
u741:
	goto	l905
u740:
	goto	l915
	
l446:	
	line	62
	goto	l915
	
l443:	
	line	63
	
l907:	
	movlw	low(018h)
	subwf	(___fttol@exp1),w
	skipc
	goto	u751
	goto	u750
u751:
	goto	l449
u750:
	line	64
	
l909:	
	movlw	high highword(0)
	movwf	(?___fttol+3)
	movlw	low highword(0)
	movwf	(?___fttol+2)
	movlw	high(0)
	movwf	(?___fttol+1)
	movlw	low(0)
	movwf	(?___fttol)

	goto	l442
	
l911:	
	goto	l442
	
l448:	
	line	65
	goto	l449
	
l450:	
	line	66
	
l913:	
	movlw	01h
	movwf	(??___fttol+0)+0
u765:
	clrc
	rlf	(___fttol@lval),f
	rlf	(___fttol@lval+1),f
	rlf	(___fttol@lval+2),f
	rlf	(___fttol@lval+3),f
	decfsz	(??___fttol+0)+0
	goto	u765
	line	67
	movlw	01h
	subwf	(___fttol@exp1),f
	line	68
	
l449:	
	line	65
	movf	((___fttol@exp1)),w
	btfss	status,2
	goto	u771
	goto	u770
u771:
	goto	l913
u770:
	goto	l915
	
l451:	
	goto	l915
	line	69
	
l447:	
	line	70
	
l915:	
	movf	((___fttol@sign1)),w
	btfsc	status,2
	goto	u781
	goto	u780
u781:
	goto	l919
u780:
	line	71
	
l917:	
	comf	(___fttol@lval),f
	comf	(___fttol@lval+1),f
	comf	(___fttol@lval+2),f
	comf	(___fttol@lval+3),f
	incf	(___fttol@lval),f
	skipnz
	incf	(___fttol@lval+1),f
	skipnz
	incf	(___fttol@lval+2),f
	skipnz
	incf	(___fttol@lval+3),f
	goto	l919
	
l452:	
	line	72
	
l919:	
	movf	(___fttol@lval+3),w
	movwf	(?___fttol+3)
	movf	(___fttol@lval+2),w
	movwf	(?___fttol+2)
	movf	(___fttol@lval+1),w
	movwf	(?___fttol+1)
	movf	(___fttol@lval),w
	movwf	(?___fttol)

	goto	l442
	
l921:	
	line	73
	
l442:	
	return
	opt stack 0
GLOBAL	__end_of___fttol
	__end_of___fttol:
	signat	___fttol,4220
	global	___ftdiv

;; *************** function ___ftdiv *****************
;; Defined at:
;;		line 56 in file "C:\Program Files (x86)\Microchip\xc8\v1.45\sources\common\ftdiv.c"
;; Parameters:    Size  Location     Type
;;  f2              3   24[BANK0 ] float 
;;  f1              3   27[BANK0 ] float 
;; Auto vars:     Size  Location     Type
;;  f3              3   35[BANK0 ] float 
;;  sign            1   39[BANK0 ] unsigned char 
;;  exp             1   38[BANK0 ] unsigned char 
;;  cntr            1   34[BANK0 ] unsigned char 
;; Return value:  Size  Location     Type
;;                  3   24[BANK0 ] float 
;; Registers used:
;;		wreg, status,2, status,0, pclath, cstack
;; Tracked objects:
;;		On entry : 0/0
;;		On exit  : 0/0
;;		Unchanged: 0/0
;; Data sizes:     COMMON   BANK0   BANK1   BANK3   BANK2
;;      Params:         0       6       0       0       0
;;      Locals:         0       6       0       0       0
;;      Temps:          0       4       0       0       0
;;      Totals:         0      16       0       0       0
;;Total ram usage:       16 bytes
;; Hardware stack levels used:    1
;; Hardware stack levels required when called:    2
;; This function calls:
;;		___ftpack
;; This function is called by:
;;		_setPosicaoAtual
;;		_setPosicaoDesejada
;; This function uses a non-reentrant model
;;
psect	text7,local,class=CODE,delta=2,merge=1,group=2
	file	"C:\Program Files (x86)\Microchip\xc8\v1.45\sources\common\ftdiv.c"
	line	56
global __ptext7
__ptext7:	;psect for function ___ftdiv
psect	text7
	file	"C:\Program Files (x86)\Microchip\xc8\v1.45\sources\common\ftdiv.c"
	line	56
	global	__size_of___ftdiv
	__size_of___ftdiv	equ	__end_of___ftdiv-___ftdiv
	
___ftdiv:	
;incstack = 0
	opt	stack 3
; Regs used in ___ftdiv: [wreg+status,2+status,0+pclath+cstack]
	line	63
	
l839:	
	bcf	status, 5	;RP0=0, select bank0
	bcf	status, 6	;RP1=0, select bank0
	movf	(___ftdiv@f1),w
	movwf	((??___ftdiv+0)+0)
	movf	(___ftdiv@f1+1),w
	movwf	((??___ftdiv+0)+0+1)
	movf	(___ftdiv@f1+2),w
	movwf	((??___ftdiv+0)+0+2)
	clrc
	rlf	(??___ftdiv+0)+1,w
	rlf	(??___ftdiv+0)+2,w
	movwf	(??___ftdiv+3)+0
	movf	(??___ftdiv+3)+0,w
	movwf	(___ftdiv@exp)
	movf	(((___ftdiv@exp))),w
	btfss	status,2
	goto	u611
	goto	u610
u611:
	goto	l845
u610:
	line	64
	
l841:	
	movlw	0x0
	movwf	(?___ftdiv)
	movlw	0x0
	movwf	(?___ftdiv+1)
	movlw	0x0
	movwf	(?___ftdiv+2)
	goto	l406
	
l843:	
	goto	l406
	
l405:	
	line	65
	
l845:	
	movf	(___ftdiv@f2),w
	movwf	((??___ftdiv+0)+0)
	movf	(___ftdiv@f2+1),w
	movwf	((??___ftdiv+0)+0+1)
	movf	(___ftdiv@f2+2),w
	movwf	((??___ftdiv+0)+0+2)
	clrc
	rlf	(??___ftdiv+0)+1,w
	rlf	(??___ftdiv+0)+2,w
	movwf	(??___ftdiv+3)+0
	movf	(??___ftdiv+3)+0,w
	movwf	(___ftdiv@sign)
	movf	(((___ftdiv@sign))),w
	btfss	status,2
	goto	u621
	goto	u620
u621:
	goto	l851
u620:
	line	66
	
l847:	
	movlw	0x0
	movwf	(?___ftdiv)
	movlw	0x0
	movwf	(?___ftdiv+1)
	movlw	0x0
	movwf	(?___ftdiv+2)
	goto	l406
	
l849:	
	goto	l406
	
l407:	
	line	67
	
l851:	
	movlw	low(0)
	movwf	(___ftdiv@f3)
	movlw	high(0)
	movwf	(___ftdiv@f3+1)
	movlw	low highword(0)
	movwf	(___ftdiv@f3+2)
	line	68
	
l853:	
	movlw	low(089h)
	addwf	(___ftdiv@sign),w
	movwf	(??___ftdiv+0)+0
	movf	0+(??___ftdiv+0)+0,w
	subwf	(___ftdiv@exp),f
	line	69
	
l855:	
	movf	(___ftdiv@f1),w
	movwf	((??___ftdiv+0)+0)
	movf	(___ftdiv@f1+1),w
	movwf	((??___ftdiv+0)+0+1)
	movf	(___ftdiv@f1+2),w
	movwf	((??___ftdiv+0)+0+2)
	movlw	010h
u635:
	clrc
	rrf	(??___ftdiv+0)+2,f
	rrf	(??___ftdiv+0)+1,f
	rrf	(??___ftdiv+0)+0,f
u630:
	addlw	-1
	skipz
	goto	u635
	movf	0+(??___ftdiv+0)+0,w
	movwf	(??___ftdiv+3)+0
	movf	(??___ftdiv+3)+0,w
	movwf	(___ftdiv@sign)
	line	70
	
l857:	
	movf	(___ftdiv@f2),w
	movwf	((??___ftdiv+0)+0)
	movf	(___ftdiv@f2+1),w
	movwf	((??___ftdiv+0)+0+1)
	movf	(___ftdiv@f2+2),w
	movwf	((??___ftdiv+0)+0+2)
	movlw	010h
u645:
	clrc
	rrf	(??___ftdiv+0)+2,f
	rrf	(??___ftdiv+0)+1,f
	rrf	(??___ftdiv+0)+0,f
u640:
	addlw	-1
	skipz
	goto	u645
	movf	0+(??___ftdiv+0)+0,w
	movwf	(??___ftdiv+3)+0
	movf	(??___ftdiv+3)+0,w
	xorwf	(___ftdiv@sign),f
	line	71
	
l859:	
	movlw	low(080h)
	movwf	(??___ftdiv+0)+0
	movf	(??___ftdiv+0)+0,w
	andwf	(___ftdiv@sign),f
	line	72
	
l861:	
	bsf	(___ftdiv@f1)+(15/8),(15)&7
	line	73
	movlw	0FFh
	andwf	(___ftdiv@f1),f
	movlw	0FFh
	andwf	(___ftdiv@f1+1),f
	movlw	0
	andwf	(___ftdiv@f1+2),f
	line	74
	
l863:	
	bsf	(___ftdiv@f2)+(15/8),(15)&7
	line	75
	movlw	0FFh
	andwf	(___ftdiv@f2),f
	movlw	0FFh
	andwf	(___ftdiv@f2+1),f
	movlw	0
	andwf	(___ftdiv@f2+2),f
	line	76
	movlw	low(018h)
	movwf	(??___ftdiv+0)+0
	movf	(??___ftdiv+0)+0,w
	movwf	(___ftdiv@cntr)
	goto	l865
	line	77
	
l408:	
	line	78
	
l865:	
	movlw	01h
u655:
	clrc
	rlf	(___ftdiv@f3),f
	rlf	(___ftdiv@f3+1),f
	rlf	(___ftdiv@f3+2),f
	addlw	-1
	skipz
	goto	u655
	line	79
	
l867:	
	movf	(___ftdiv@f2+2),w
	subwf	(___ftdiv@f1+2),w
	skipz
	goto	u665
	movf	(___ftdiv@f2+1),w
	subwf	(___ftdiv@f1+1),w
	skipz
	goto	u665
	movf	(___ftdiv@f2),w
	subwf	(___ftdiv@f1),w
u665:
	skipc
	goto	u661
	goto	u660
u661:
	goto	l873
u660:
	line	80
	
l869:	
	movf	(___ftdiv@f2),w
	subwf	(___ftdiv@f1),f
	movf	(___ftdiv@f2+1),w
	skipc
	incfsz	(___ftdiv@f2+1),w
	subwf	(___ftdiv@f1+1),f
	movf	(___ftdiv@f2+2),w
	skipc
	incf	(___ftdiv@f2+2),w
	subwf	(___ftdiv@f1+2),f
	line	81
	
l871:	
	bsf	(___ftdiv@f3)+(0/8),(0)&7
	goto	l873
	line	82
	
l409:	
	line	83
	
l873:	
	movlw	01h
u675:
	clrc
	rlf	(___ftdiv@f1),f
	rlf	(___ftdiv@f1+1),f
	rlf	(___ftdiv@f1+2),f
	addlw	-1
	skipz
	goto	u675
	line	84
	
l875:	
	movlw	01h
	subwf	(___ftdiv@cntr),f
	btfss	status,2
	goto	u681
	goto	u680
u681:
	goto	l865
u680:
	goto	l877
	
l410:	
	line	85
	
l877:	
	movf	(___ftdiv@f3),w
	movwf	(___ftpack@arg)
	movf	(___ftdiv@f3+1),w
	movwf	(___ftpack@arg+1)
	movf	(___ftdiv@f3+2),w
	movwf	(___ftpack@arg+2)
	movf	(___ftdiv@exp),w
	movwf	(??___ftdiv+0)+0
	movf	(??___ftdiv+0)+0,w
	movwf	(___ftpack@exp)
	movf	(___ftdiv@sign),w
	movwf	(??___ftdiv+1)+0
	movf	(??___ftdiv+1)+0,w
	movwf	(___ftpack@sign)
	fcall	___ftpack
	bcf	status, 5	;RP0=0, select bank0
	bcf	status, 6	;RP1=0, select bank0
	movf	(0+(?___ftpack)),w
	movwf	(?___ftdiv)
	movf	(1+(?___ftpack)),w
	movwf	(?___ftdiv+1)
	movf	(2+(?___ftpack)),w
	movwf	(?___ftdiv+2)
	goto	l406
	
l879:	
	line	86
	
l406:	
	return
	opt stack 0
GLOBAL	__end_of___ftdiv
	__end_of___ftdiv:
	signat	___ftdiv,8315
	global	___ftpack

;; *************** function ___ftpack *****************
;; Defined at:
;;		line 62 in file "C:\Program Files (x86)\Microchip\xc8\v1.45\sources\common\float.c"
;; Parameters:    Size  Location     Type
;;  arg             3   12[BANK0 ] unsigned um
;;  exp             1   15[BANK0 ] unsigned char 
;;  sign            1   16[BANK0 ] unsigned char 
;; Auto vars:     Size  Location     Type
;;		None
;; Return value:  Size  Location     Type
;;                  3   12[BANK0 ] float 
;; Registers used:
;;		wreg, status,2, status,0
;; Tracked objects:
;;		On entry : 0/0
;;		On exit  : 0/0
;;		Unchanged: 0/0
;; Data sizes:     COMMON   BANK0   BANK1   BANK3   BANK2
;;      Params:         0       5       0       0       0
;;      Locals:         0       0       0       0       0
;;      Temps:          0       3       0       0       0
;;      Totals:         0       8       0       0       0
;;Total ram usage:        8 bytes
;; Hardware stack levels used:    1
;; Hardware stack levels required when called:    1
;; This function calls:
;;		Nothing
;; This function is called by:
;;		___ftdiv
;;		___lwtoft
;;		___lbtoft
;;		___ftmul
;; This function uses a non-reentrant model
;;
psect	text8,local,class=CODE,delta=2,merge=1,group=2
	file	"C:\Program Files (x86)\Microchip\xc8\v1.45\sources\common\float.c"
	line	62
global __ptext8
__ptext8:	;psect for function ___ftpack
psect	text8
	file	"C:\Program Files (x86)\Microchip\xc8\v1.45\sources\common\float.c"
	line	62
	global	__size_of___ftpack
	__size_of___ftpack	equ	__end_of___ftpack-___ftpack
	
___ftpack:	
;incstack = 0
	opt	stack 3
; Regs used in ___ftpack: [wreg+status,2+status,0]
	line	64
	
l807:	
	bcf	status, 5	;RP0=0, select bank0
	bcf	status, 6	;RP1=0, select bank0
	movf	((___ftpack@exp)),w
	btfsc	status,2
	goto	u491
	goto	u490
u491:
	goto	l811
u490:
	
l809:	
	movf	(___ftpack@arg+2),w
	iorwf	(___ftpack@arg+1),w
	iorwf	(___ftpack@arg),w
	skipz
	goto	u501
	goto	u500
u501:
	goto	l817
u500:
	goto	l811
	
l353:	
	line	65
	
l811:	
	movlw	0x0
	movwf	(?___ftpack)
	movlw	0x0
	movwf	(?___ftpack+1)
	movlw	0x0
	movwf	(?___ftpack+2)
	goto	l354
	
l813:	
	goto	l354
	
l351:	
	line	66
	goto	l817
	
l356:	
	line	67
	
l815:	
	movlw	low(01h)
	movwf	(??___ftpack+0)+0
	movf	(??___ftpack+0)+0,w
	addwf	(___ftpack@exp),f
	line	68
	movlw	01h
u515:
	clrc
	rrf	(___ftpack@arg+2),f
	rrf	(___ftpack@arg+1),f
	rrf	(___ftpack@arg),f
	addlw	-1
	skipz
	goto	u515

	goto	l817
	line	69
	
l355:	
	line	66
	
l817:	
	movlw	low highword(0FE0000h)
	andwf	(___ftpack@arg+2),w
	btfss	status,2
	goto	u521
	goto	u520
u521:
	goto	l815
u520:
	goto	l358
	
l357:	
	line	70
	goto	l358
	
l359:	
	line	71
	
l819:	
	movlw	low(01h)
	movwf	(??___ftpack+0)+0
	movf	(??___ftpack+0)+0,w
	addwf	(___ftpack@exp),f
	line	72
	
l821:	
	movlw	01h
	addwf	(___ftpack@arg),f
	movlw	0
	skipnc
movlw 1
	addwf	(___ftpack@arg+1),f
	movlw	0
	skipnc
movlw 1
	addwf	(___ftpack@arg+2),f
	line	73
	
l823:	
	movlw	01h
u535:
	clrc
	rrf	(___ftpack@arg+2),f
	rrf	(___ftpack@arg+1),f
	rrf	(___ftpack@arg),f
	addlw	-1
	skipz
	goto	u535

	line	74
	
l358:	
	line	70
	movlw	low highword(0FF0000h)
	andwf	(___ftpack@arg+2),w
	btfss	status,2
	goto	u541
	goto	u540
u541:
	goto	l819
u540:
	goto	l827
	
l360:	
	line	75
	goto	l827
	
l362:	
	line	76
	
l825:	
	movlw	01h
	subwf	(___ftpack@exp),f
	line	77
	movlw	01h
u555:
	clrc
	rlf	(___ftpack@arg),f
	rlf	(___ftpack@arg+1),f
	rlf	(___ftpack@arg+2),f
	addlw	-1
	skipz
	goto	u555
	goto	l827
	line	78
	
l361:	
	line	75
	
l827:	
	btfsc	(___ftpack@arg+1),(15)&7
	goto	u561
	goto	u560
u561:
	goto	l365
u560:
	
l829:	
	movlw	low(02h)
	subwf	(___ftpack@exp),w
	skipnc
	goto	u571
	goto	u570
u571:
	goto	l825
u570:
	goto	l365
	
l364:	
	
l365:	
	line	79
	btfsc	(___ftpack@exp),(0)&7
	goto	u581
	goto	u580
u581:
	goto	l366
u580:
	line	80
	
l831:	
	movlw	0FFh
	andwf	(___ftpack@arg),f
	movlw	07Fh
	andwf	(___ftpack@arg+1),f
	movlw	0FFh
	andwf	(___ftpack@arg+2),f
	
l366:	
	line	81
	clrc
	rrf	(___ftpack@exp),f

	line	82
	
l833:	
	movf	(___ftpack@exp),w
	movwf	((??___ftpack+0)+0)
	clrf	((??___ftpack+0)+0+1)
	clrf	((??___ftpack+0)+0+2)
	movlw	010h
u595:
	clrc
	rlf	(??___ftpack+0)+0,f
	rlf	(??___ftpack+0)+1,f
	rlf	(??___ftpack+0)+2,f
u590:
	addlw	-1
	skipz
	goto	u595
	movf	0+(??___ftpack+0)+0,w
	iorwf	(___ftpack@arg),f
	movf	1+(??___ftpack+0)+0,w
	iorwf	(___ftpack@arg+1),f
	movf	2+(??___ftpack+0)+0,w
	iorwf	(___ftpack@arg+2),f
	line	83
	
l835:	
	movf	((___ftpack@sign)),w
	btfsc	status,2
	goto	u601
	goto	u600
u601:
	goto	l367
u600:
	line	84
	
l837:	
	bsf	(___ftpack@arg)+(23/8),(23)&7
	
l367:	
	line	85
	line	86
	
l354:	
	return
	opt stack 0
GLOBAL	__end_of___ftpack
	__end_of___ftpack:
	signat	___ftpack,12411
	global	_calculaErro

;; *************** function _calculaErro *****************
;; Defined at:
;;		line 31 in file "D:\Drive\00_UNIFEI\2022.1\Lab. de Microcontroladores\Projeto\stepper_motor-pic16f887\stepper_motor\stepper.c"
;; Parameters:    Size  Location     Type
;;		None
;; Auto vars:     Size  Location     Type
;;		None
;; Return value:  Size  Location     Type
;;                  1    wreg      void 
;; Registers used:
;;		wreg, status,2, status,0, pclath, cstack
;; Tracked objects:
;;		On entry : 0/0
;;		On exit  : 0/0
;;		Unchanged: 0/0
;; Data sizes:     COMMON   BANK0   BANK1   BANK3   BANK2
;;      Params:         0       0       0       0       0
;;      Locals:         0       0       0       0       0
;;      Temps:          0       3       0       0       0
;;      Totals:         0       3       0       0       0
;;Total ram usage:        3 bytes
;; Hardware stack levels used:    1
;; Hardware stack levels required when called:    2
;; This function calls:
;;		_abs
;; This function is called by:
;;		_main
;; This function uses a non-reentrant model
;;
psect	text9,local,class=CODE,delta=2,merge=1,group=0
	file	"D:\Drive\00_UNIFEI\2022.1\Lab. de Microcontroladores\Projeto\stepper_motor-pic16f887\stepper_motor\stepper.c"
	line	31
global __ptext9
__ptext9:	;psect for function _calculaErro
psect	text9
	file	"D:\Drive\00_UNIFEI\2022.1\Lab. de Microcontroladores\Projeto\stepper_motor-pic16f887\stepper_motor\stepper.c"
	line	31
	global	__size_of_calculaErro
	__size_of_calculaErro	equ	__end_of_calculaErro-_calculaErro
	
_calculaErro:	
;incstack = 0
	opt	stack 5
; Regs used in _calculaErro: [wreg+status,2+status,0+pclath+cstack]
	line	32
	
l947:	
;stepper.c: 32: error = abs(position - setpoint);
	bcf	status, 5	;RP0=0, select bank0
	bcf	status, 6	;RP1=0, select bank0
	movf	(_setpoint),w
	movwf	(??_calculaErro+0)+0
	clrf	(??_calculaErro+0)+0+1
	comf	(??_calculaErro+0)+0,f
	comf	(??_calculaErro+0)+1,f
	incf	(??_calculaErro+0)+0,f
	skipnz
	incf	(??_calculaErro+0)+1,f
	movf	(_position),w
	addwf	0+(??_calculaErro+0)+0,w
	movwf	(abs@a)
	movf	1+(??_calculaErro+0)+0,w
	skipnc
	incf	1+(??_calculaErro+0)+0,w
	movwf	((abs@a))+1
	fcall	_abs
	bcf	status, 5	;RP0=0, select bank0
	bcf	status, 6	;RP1=0, select bank0
	movf	(0+(?_abs)),w
	movwf	(??_calculaErro+2)+0
	movf	(??_calculaErro+2)+0,w
	movwf	(_error)
	line	34
	
l949:	
;stepper.c: 34: if(setpoint > position && error > 32)
	movf	(_setpoint),w
	subwf	(_position),w
	skipnc
	goto	u801
	goto	u800
u801:
	goto	l955
u800:
	
l951:	
	movf	(_error),w
	xorlw	80h
	addlw	-((021h)^80h)
	skipc
	goto	u811
	goto	u810
u811:
	goto	l955
u810:
	line	35
	
l953:	
;stepper.c: 35: error = -error;
	comf	(_error),f
	incf	(_error),f
	goto	l955
	
l35:	
	line	37
	
l955:	
;stepper.c: 37: if(setpoint < position && error < 32)
	movf	(_position),w
	subwf	(_setpoint),w
	skipnc
	goto	u821
	goto	u820
u821:
	goto	l37
u820:
	
l957:	
	movf	(_error),w
	xorlw	80h
	addlw	-((020h)^80h)
	skipnc
	goto	u831
	goto	u830
u831:
	goto	l37
u830:
	line	38
	
l959:	
;stepper.c: 38: error = -error;
	comf	(_error),f
	incf	(_error),f
	goto	l37
	
l36:	
	line	39
	
l37:	
	return
	opt stack 0
GLOBAL	__end_of_calculaErro
	__end_of_calculaErro:
	signat	_calculaErro,89
	global	_abs

;; *************** function _abs *****************
;; Defined at:
;;		line 4 in file "C:\Program Files (x86)\Microchip\xc8\v1.45\sources\common\abs.c"
;; Parameters:    Size  Location     Type
;;  a               2   12[BANK0 ] int 
;; Auto vars:     Size  Location     Type
;;		None
;; Return value:  Size  Location     Type
;;                  2   12[BANK0 ] int 
;; Registers used:
;;		wreg, status,2, status,0
;; Tracked objects:
;;		On entry : 0/0
;;		On exit  : 0/0
;;		Unchanged: 0/0
;; Data sizes:     COMMON   BANK0   BANK1   BANK3   BANK2
;;      Params:         0       2       0       0       0
;;      Locals:         0       0       0       0       0
;;      Temps:          0       2       0       0       0
;;      Totals:         0       4       0       0       0
;;Total ram usage:        4 bytes
;; Hardware stack levels used:    1
;; Hardware stack levels required when called:    1
;; This function calls:
;;		Nothing
;; This function is called by:
;;		_calculaErro
;; This function uses a non-reentrant model
;;
psect	text10,local,class=CODE,delta=2,merge=1,group=2
	file	"C:\Program Files (x86)\Microchip\xc8\v1.45\sources\common\abs.c"
	line	4
global __ptext10
__ptext10:	;psect for function _abs
psect	text10
	file	"C:\Program Files (x86)\Microchip\xc8\v1.45\sources\common\abs.c"
	line	4
	global	__size_of_abs
	__size_of_abs	equ	__end_of_abs-_abs
	
_abs:	
;incstack = 0
	opt	stack 5
; Regs used in _abs: [wreg+status,2+status,0]
	line	6
	
l939:	
	bcf	status, 5	;RP0=0, select bank0
	bcf	status, 6	;RP1=0, select bank0
	btfss	(abs@a+1),7
	goto	u791
	goto	u790
u791:
	goto	l242
u790:
	line	7
	
l941:	
	comf	(abs@a),w
	movwf	(??_abs+0)+0
	comf	(abs@a+1),w
	movwf	((??_abs+0)+0+1)
	incf	(??_abs+0)+0,f
	skipnz
	incf	((??_abs+0)+0+1),f
	movf	0+(??_abs+0)+0,w
	movwf	(?_abs)
	movf	1+(??_abs+0)+0,w
	movwf	(?_abs+1)
	goto	l243
	
l943:	
	goto	l243
	
l242:	
	line	8
	line	9
	
l243:	
	return
	opt stack 0
GLOBAL	__end_of_abs
	__end_of_abs:
	signat	_abs,4218
	global	_ISR

;; *************** function _ISR *****************
;; Defined at:
;;		line 17 in file "D:\Drive\00_UNIFEI\2022.1\Lab. de Microcontroladores\Projeto\stepper_motor-pic16f887\stepper_motor\main.c"
;; Parameters:    Size  Location     Type
;;		None
;; Auto vars:     Size  Location     Type
;;		None
;; Return value:  Size  Location     Type
;;                  1    wreg      void 
;; Registers used:
;;		wreg, status,2, status,0
;; Tracked objects:
;;		On entry : 0/0
;;		On exit  : 0/0
;;		Unchanged: 0/0
;; Data sizes:     COMMON   BANK0   BANK1   BANK3   BANK2
;;      Params:         0       0       0       0       0
;;      Locals:         0      12       0       0       0
;;      Temps:          7       0       0       0       0
;;      Totals:         7      12       0       0       0
;;Total ram usage:       19 bytes
;; Hardware stack levels used:    1
;; This function calls:
;;		Nothing
;; This function is called by:
;;		Interrupt level 1
;; This function uses a non-reentrant model
;;
psect	text11,local,class=CODE,delta=2,merge=1,group=0
	file	"D:\Drive\00_UNIFEI\2022.1\Lab. de Microcontroladores\Projeto\stepper_motor-pic16f887\stepper_motor\main.c"
	line	17
global __ptext11
__ptext11:	;psect for function _ISR
psect	text11
	file	"D:\Drive\00_UNIFEI\2022.1\Lab. de Microcontroladores\Projeto\stepper_motor-pic16f887\stepper_motor\main.c"
	line	17
	global	__size_of_ISR
	__size_of_ISR	equ	__end_of_ISR-_ISR
	
_ISR:	
;incstack = 0
	opt	stack 3
; Regs used in _ISR: [wreg+status,2+status,0]
psect	intentry,class=CODE,delta=2
global __pintentry
__pintentry:
global interrupt_function
interrupt_function:
	global saved_w
	saved_w	set	btemp+0
	movwf	saved_w
	swapf	status,w
	movwf	(??_ISR+3)
	movf	fsr0,w
	movwf	(??_ISR+4)
	movf	pclath,w
	movwf	(??_ISR+5)
	bcf	status, 5	;RP0=0, select bank0
	bcf	status, 6	;RP1=0, select bank0
	movf	btemp+1,w
	movwf	(??_ISR+6)
	ljmp	_ISR
psect	text11
	line	19
	
i1l967:	
;main.c: 19: if(poscaler2 >= 5){
	movlw	low(05h)
	subwf	(_poscaler2),w
	skipc
	goto	u84_21
	goto	u84_20
u84_21:
	goto	i1l1023
u84_20:
	line	21
	
i1l969:	
;main.c: 21: if(error > 0){
	movf	(_error),w
	xorlw	80h
	addlw	-((01h)^80h)
	skipc
	goto	u85_21
	goto	u85_20
u85_21:
	goto	i1l995
u85_20:
	line	22
	
i1l971:	
;main.c: 22: STATUSbits.C = 0;
	bcf	(3),0	;volatile
	line	23
	
i1l973:	
;main.c: 23: phase = (phase == 0) ? 1 : phase;
	movf	((_phase)),w
	btfsc	status,2
	goto	u86_21
	goto	u86_20
u86_21:
	goto	i1l977
u86_20:
	
i1l975:	
	movf	(_phase),w
	movwf	(??_ISR+0)+0
	clrf	(??_ISR+0)+0+1
	movf	0+(??_ISR+0)+0,w
	movwf	(_ISR$221)
	movf	1+(??_ISR+0)+0,w
	movwf	(_ISR$221+1)
	goto	i1l73
	
i1l71:	
	
i1l977:	
	movlw	01h
	movwf	(_ISR$221)
	movlw	0
	movwf	((_ISR$221))+1
	
i1l73:	
	movf	(_ISR$221),w
	movwf	(??_ISR+0)+0
	movf	(??_ISR+0)+0,w
	movwf	(_phase)
	line	24
	
i1l979:	
;main.c: 24: phase = (phase == 8) ? phase >> 3 : phase << 1;
		movlw	8
	xorwf	((_phase)),w
	btfsc	status,2
	goto	u87_21
	goto	u87_20
u87_21:
	goto	i1l983
u87_20:
	
i1l981:	
	movf	(_phase),w
	movwf	(??_ISR+0)+0
	clrf	(??_ISR+0)+0+1
	clrc
	rlf	0+(??_ISR+0)+0,w
	movwf	(_ISR$222)
	rlf	1+(??_ISR+0)+0,w
	movwf	1+(_ISR$222)
	goto	i1l985
	
i1l75:	
	
i1l983:	
	movf	(_phase),w
	movwf	(??_ISR+0)+0
	movlw	03h
u88_25:
	clrc
	rrf	(??_ISR+0)+0,f
	addlw	-1
	skipz
	goto	u88_25
	movf	0+(??_ISR+0)+0,w
	movwf	(??_ISR+1)+0
	clrf	(??_ISR+1)+0+1
	movf	0+(??_ISR+1)+0,w
	movwf	(_ISR$222)
	movf	1+(??_ISR+1)+0,w
	movwf	(_ISR$222+1)
	goto	i1l985
	
i1l77:	
	
i1l985:	
	movf	(_ISR$222),w
	movwf	(??_ISR+0)+0
	movf	(??_ISR+0)+0,w
	movwf	(_phase)
	line	25
	
i1l987:	
;main.c: 25: position = ((position + 1)== 64) ? 0 : (position + 1);
	movf	(_position),w
	addlw	low(01h)
	movwf	(??_ISR+0)+0
	movlw	high(01h)
	skipnc
	movlw	(high(01h)+1)&0ffh
	movwf	((??_ISR+0)+0)+1
		movlw	64
	xorwf	((??_ISR+0)+0),w
iorwf	((??_ISR+0)+1),w
	btfsc	status,2
	goto	u89_21
	goto	u89_20
u89_21:
	goto	i1l991
u89_20:
	
i1l989:	
	movf	(_position),w
	addlw	low(01h)
	movwf	(_ISR$223)
	movlw	high(01h)
	skipnc
	movlw	(high(01h)+1)&0ffh
	movwf	((_ISR$223))+1
	goto	i1l993
	
i1l79:	
	
i1l991:	
	clrf	(_ISR$223)
	clrf	(_ISR$223+1)
	goto	i1l993
	
i1l81:	
	
i1l993:	
	movf	(_ISR$223),w
	movwf	(??_ISR+0)+0
	movf	(??_ISR+0)+0,w
	movwf	(_position)
	goto	i1l995
	line	26
	
i1l69:	
	line	28
	
i1l995:	
;main.c: 26: }
;main.c: 28: if(error < 0){
	btfss	(_error),7
	goto	u90_21
	goto	u90_20
u90_21:
	goto	i1l1019
u90_20:
	line	29
	
i1l997:	
;main.c: 29: STATUSbits.C = 0;
	bcf	(3),0	;volatile
	line	30
	
i1l999:	
;main.c: 30: phase = (phase == 0) ? 8 : phase;
	movf	((_phase)),w
	btfsc	status,2
	goto	u91_21
	goto	u91_20
u91_21:
	goto	i1l1003
u91_20:
	
i1l1001:	
	movf	(_phase),w
	movwf	(??_ISR+0)+0
	clrf	(??_ISR+0)+0+1
	movf	0+(??_ISR+0)+0,w
	movwf	(_ISR$224)
	movf	1+(??_ISR+0)+0,w
	movwf	(_ISR$224+1)
	goto	i1l86
	
i1l84:	
	
i1l1003:	
	movlw	08h
	movwf	(_ISR$224)
	movlw	0
	movwf	((_ISR$224))+1
	
i1l86:	
	movf	(_ISR$224),w
	movwf	(??_ISR+0)+0
	movf	(??_ISR+0)+0,w
	movwf	(_phase)
	line	31
	
i1l1005:	
;main.c: 31: phase = (phase == 1) ? phase << 3 : phase >> 1;
		decf	((_phase)),w
	btfsc	status,2
	goto	u92_21
	goto	u92_20
u92_21:
	goto	i1l1009
u92_20:
	
i1l1007:	
	movf	(_phase),w
	movwf	(??_ISR+0)+0
	clrc
	rrf	(??_ISR+0)+0,w
	movwf	(??_ISR+1)+0
	clrf	(??_ISR+1)+0+1
	movf	0+(??_ISR+1)+0,w
	movwf	(_ISR$225)
	movf	1+(??_ISR+1)+0,w
	movwf	(_ISR$225+1)
	goto	i1l1011
	
i1l88:	
	
i1l1009:	
	movf	(_phase),w
	movwf	(??_ISR+0)+0
	clrf	(??_ISR+0)+0+1
	clrc
	rlf	(??_ISR+0)+0,f
	rlf	(??_ISR+0)+1,f
	clrc
	rlf	(??_ISR+0)+0,f
	rlf	(??_ISR+0)+1,f
	clrc
	rlf	(??_ISR+0)+0,f
	rlf	(??_ISR+0)+1,f
	movf	0+(??_ISR+0)+0,w
	movwf	(_ISR$225)
	movf	1+(??_ISR+0)+0,w
	movwf	(_ISR$225+1)
	goto	i1l1011
	
i1l90:	
	
i1l1011:	
	movf	(_ISR$225),w
	movwf	(??_ISR+0)+0
	movf	(??_ISR+0)+0,w
	movwf	(_phase)
	line	32
	
i1l1013:	
;main.c: 32: position = ((position - 1)== -1) ? 63 : (position - 1);
	movf	(_position),w
	addlw	low(-1)
	movwf	(??_ISR+0)+0
	movlw	high(-1)
	skipnc
	movlw	(high(-1)+1)&0ffh
	movwf	((??_ISR+0)+0)+1
		incf	((??_ISR+0)+0),w
	skipz
	goto	u93_20
	incf	((??_ISR+0)+1),w
	btfsc	status,2
	goto	u93_21
	goto	u93_20
u93_21:
	goto	i1l1017
u93_20:
	
i1l1015:	
	movf	(_position),w
	addlw	low(-1)
	movwf	(_ISR$226)
	movlw	high(-1)
	skipnc
	movlw	(high(-1)+1)&0ffh
	movwf	((_ISR$226))+1
	goto	i1l94
	
i1l92:	
	
i1l1017:	
	movlw	03Fh
	movwf	(_ISR$226)
	movlw	0
	movwf	((_ISR$226))+1
	
i1l94:	
	movf	(_ISR$226),w
	movwf	(??_ISR+0)+0
	movf	(??_ISR+0)+0,w
	movwf	(_position)
	goto	i1l1019
	line	33
	
i1l82:	
	line	34
	
i1l1019:	
;main.c: 33: }
;main.c: 34: poscaler2 = 0;
	clrf	(_poscaler2)
	line	35
	
i1l1021:	
;main.c: 35: PORTD = phase;
	movf	(_phase),w
	movwf	(8)	;volatile
	goto	i1l1023
	line	36
	
i1l68:	
	line	38
	
i1l1023:	
;main.c: 36: }
;main.c: 38: poscaler2++;
	movlw	low(01h)
	movwf	(??_ISR+0)+0
	movf	(??_ISR+0)+0,w
	addwf	(_poscaler2),f
	line	40
	
i1l1025:	
;main.c: 40: PIR1bits.TMR2IF = 0;
	bcf	(12),1	;volatile
	line	41
	
i1l95:	
	movf	(??_ISR+6),w
	movwf	btemp+1
	movf	(??_ISR+5),w
	movwf	pclath
	movf	(??_ISR+4),w
	movwf	fsr0
	swapf	(??_ISR+3)^0FFFFFF80h,w
	movwf	status
	swapf	saved_w,f
	swapf	saved_w,w
	retfie
	opt stack 0
GLOBAL	__end_of_ISR
	__end_of_ISR:
	signat	_ISR,89
global	___latbits
___latbits	equ	2
	global	btemp
	btemp set 07Eh

	DABS	1,126,2	;btemp
	global	wtemp0
	wtemp0 set btemp+0
	end
